target datalayout = "e-m:e-p270:32:32-p271:32:32-p272:64:64-i64:64-i128:128-f80:128-n8:16:32:64-S128"
target triple = "x86_64-unknown-linux-gnu"

%"class.std::__cxx11::basic_string" = type { %"struct.std::__cxx11::basic_string<char>::_Alloc_hider", i64, %union.anon }
%"struct.std::__cxx11::basic_string<char>::_Alloc_hider" = type { ptr }
%union.anon = type { i64, [8 x i8] }
%"class.testing::internal::MutexBase" = type { %union.pthread_mutex_t, i8, i64 }
%union.pthread_mutex_t = type { %struct.__pthread_mutex_s }
%struct.__pthread_mutex_s = type { i32, i32, i32, i32, i32, i16, i16, %struct.__pthread_internal_list }
%struct.__pthread_internal_list = type { ptr, ptr }
%"class.testing::internal::Mutex" = type { %"class.testing::internal::MutexBase" }
%"class.testing::internal::Random" = type { i32 }
%"class.testing::internal::FilePath" = type { %"class.std::__cxx11::basic_string" }
%"class.testing::internal::UnitTestImpl" = type <{ ptr, ptr, %"class.testing::internal::FilePath", %"class.testing::internal::DefaultGlobalTestPartResultReporter", %"class.testing::internal::DefaultPerThreadTestPartResultReporter", ptr, %"class.testing::internal::Mutex", %"class.testing::internal::ThreadLocal", %"class.std::vector", %"class.std::vector.4", %"class.std::vector.9", %"class.testing::internal::ParameterizedTestCaseRegistry", i8, [3 x i8], i32, ptr, ptr, %"class.testing::TestResult", %"class.testing::TestEventListeners", ptr, i8, [3 x i8], i32, %"class.testing::internal::Random", [4 x i8], i64, i64, %"class.testing::internal::scoped_ptr.29", %"class.testing::internal::scoped_ptr.30", %"class.testing::internal::ThreadLocal.31", i8, [7 x i8] }>
%"class.testing::internal::DefaultGlobalTestPartResultReporter" = type { %"class.testing::TestPartResultReporterInterface", ptr }
%"class.testing::TestPartResultReporterInterface" = type { ptr }
%"class.testing::internal::DefaultPerThreadTestPartResultReporter" = type { %"class.testing::TestPartResultReporterInterface", ptr }
%"class.testing::internal::ThreadLocal" = type { i32, %"class.testing::internal::scoped_ptr.0" }
%"class.testing::internal::scoped_ptr.0" = type { ptr }
%"class.std::vector" = type { %"struct.std::_Vector_base" }
%"struct.std::_Vector_base" = type { %"struct.std::_Vector_base<testing::Environment *, std::allocator<testing::Environment *>>::_Vector_impl" }
%"struct.std::_Vector_base<testing::Environment *, std::allocator<testing::Environment *>>::_Vector_impl" = type { %"struct.std::_Vector_base<testing::Environment *, std::allocator<testing::Environment *>>::_Vector_impl_data" }
%"struct.std::_Vector_base<testing::Environment *, std::allocator<testing::Environment *>>::_Vector_impl_data" = type { ptr, ptr, ptr }
%"class.std::vector.4" = type { %"struct.std::_Vector_base.5" }
%"struct.std::_Vector_base.5" = type { %"struct.std::_Vector_base<testing::TestCase *, std::allocator<testing::TestCase *>>::_Vector_impl" }
%"struct.std::_Vector_base<testing::TestCase *, std::allocator<testing::TestCase *>>::_Vector_impl" = type { %"struct.std::_Vector_base<testing::TestCase *, std::allocator<testing::TestCase *>>::_Vector_impl_data" }
%"struct.std::_Vector_base<testing::TestCase *, std::allocator<testing::TestCase *>>::_Vector_impl_data" = type { ptr, ptr, ptr }
%"class.std::vector.9" = type { %"struct.std::_Vector_base.10" }
%"struct.std::_Vector_base.10" = type { %"struct.std::_Vector_base<int, std::allocator<int>>::_Vector_impl" }
%"struct.std::_Vector_base<int, std::allocator<int>>::_Vector_impl" = type { %"struct.std::_Vector_base<int, std::allocator<int>>::_Vector_impl_data" }
%"struct.std::_Vector_base<int, std::allocator<int>>::_Vector_impl_data" = type { ptr, ptr, ptr }
%"class.testing::internal::ParameterizedTestCaseRegistry" = type { %"class.std::vector.14" }
%"class.std::vector.14" = type { %"struct.std::_Vector_base.15" }
%"struct.std::_Vector_base.15" = type { %"struct.std::_Vector_base<testing::internal::ParameterizedTestCaseInfoBase *, std::allocator<testing::internal::ParameterizedTestCaseInfoBase *>>::_Vector_impl" }
%"struct.std::_Vector_base<testing::internal::ParameterizedTestCaseInfoBase *, std::allocator<testing::internal::ParameterizedTestCaseInfoBase *>>::_Vector_impl" = type { %"struct.std::_Vector_base<testing::internal::ParameterizedTestCaseInfoBase *, std::allocator<testing::internal::ParameterizedTestCaseInfoBase *>>::_Vector_impl_data" }
%"struct.std::_Vector_base<testing::internal::ParameterizedTestCaseInfoBase *, std::allocator<testing::internal::ParameterizedTestCaseInfoBase *>>::_Vector_impl_data" = type { ptr, ptr, ptr }
%"class.testing::TestResult" = type { %"class.testing::internal::Mutex", %"class.std::vector.19", %"class.std::vector.24", i32, i64 }
%"class.std::vector.19" = type { %"struct.std::_Vector_base.20" }
%"struct.std::_Vector_base.20" = type { %"struct.std::_Vector_base<testing::TestPartResult, std::allocator<testing::TestPartResult>>::_Vector_impl" }
%"struct.std::_Vector_base<testing::TestPartResult, std::allocator<testing::TestPartResult>>::_Vector_impl" = type { %"struct.std::_Vector_base<testing::TestPartResult, std::allocator<testing::TestPartResult>>::_Vector_impl_data" }
%"struct.std::_Vector_base<testing::TestPartResult, std::allocator<testing::TestPartResult>>::_Vector_impl_data" = type { ptr, ptr, ptr }
%"class.std::vector.24" = type { %"struct.std::_Vector_base.25" }
%"struct.std::_Vector_base.25" = type { %"struct.std::_Vector_base<testing::TestProperty, std::allocator<testing::TestProperty>>::_Vector_impl" }
%"struct.std::_Vector_base<testing::TestProperty, std::allocator<testing::TestProperty>>::_Vector_impl" = type { %"struct.std::_Vector_base<testing::TestProperty, std::allocator<testing::TestProperty>>::_Vector_impl_data" }
%"struct.std::_Vector_base<testing::TestProperty, std::allocator<testing::TestProperty>>::_Vector_impl_data" = type { ptr, ptr, ptr }
%"class.testing::TestEventListeners" = type { ptr, ptr, ptr }
%"class.testing::internal::scoped_ptr.29" = type { ptr }
%"class.testing::internal::scoped_ptr.30" = type { ptr }
%"class.testing::internal::ThreadLocal.31" = type { i32, %"class.testing::internal::scoped_ptr.32" }
%"class.testing::internal::scoped_ptr.32" = type { ptr }
%"class.testing::TestInfo" = type { %"class.std::__cxx11::basic_string", %"class.std::__cxx11::basic_string", %"class.testing::internal::scoped_ptr.79", %"class.testing::internal::scoped_ptr.79", %"struct.testing::internal::CodeLocation", ptr, i8, i8, i8, ptr, %"class.testing::TestResult" }
%"class.testing::internal::scoped_ptr.79" = type { ptr }
%"struct.testing::internal::CodeLocation" = type <{ %"class.std::__cxx11::basic_string", i32, [4 x i8] }>

; Function Attrs: mustprogress nounwind uwtable
define noundef ptr @_ZN7testing18TestEventListeners8repeaterEv(ptr noundef nonnull align 8 dereferenceable(24) %this) #5 align 2 {
entry:
  %this.addr = alloca ptr, align 8
  store ptr %this, ptr %this.addr, align 8
  %this1 = load ptr, ptr %this.addr, align 8
  %repeater_ = getelementptr inbounds %"class.testing::TestEventListeners", ptr %this1, i32 0, i32 0
  %0 = load ptr, ptr %repeater_, align 8
  ret ptr %0
}

; Function Attrs: mustprogress nounwind uwtable
define linkonce_odr noundef ptr @_ZN7testing8internal12UnitTestImpl9listenersEv(ptr noundef nonnull align 8 dereferenceable(497) %this) #5 comdat align 2 {
entry:
  %this.addr = alloca ptr, align 8
  store ptr %this, ptr %this.addr, align 8
  %this1 = load ptr, ptr %this.addr, align 8
  %listeners_ = getelementptr inbounds %"class.testing::internal::UnitTestImpl", ptr %this1, i32 0, i32 18
  ret ptr %listeners_
}

; Function Attrs: mustprogress uwtable
define void @_ZN7testing10TestResult17AddTestPartResultERKNS_14TestPartResultE(ptr noundef nonnull align 8 dereferenceable(120) %this, ptr noundef nonnull align 8 dereferenceable(112) %test_part_result) #4 align 2 {
entry:
  %this.addr = alloca ptr, align 8
  %test_part_result.addr = alloca ptr, align 8
  store ptr %this, ptr %this.addr, align 8
  store ptr %test_part_result, ptr %test_part_result.addr, align 8
  %this1 = load ptr, ptr %this.addr, align 8
  %test_part_results_ = getelementptr inbounds %"class.testing::TestResult", ptr %this1, i32 0, i32 1
  %0 = load ptr, ptr %test_part_result.addr, align 8
  call void @_ZNSt6vectorIN7testing14TestPartResultESaIS1_EE9push_backERKS1_(ptr noundef nonnull align 8 dereferenceable(24) %test_part_results_, ptr noundef nonnull align 8 dereferenceable(112) %0)
  ret void
}

; Function Attrs: mustprogress nounwind uwtable
define noundef ptr @_ZN7testing8internal12UnitTestImpl19current_test_resultEv(ptr noundef nonnull align 8 dereferenceable(497) %this) #5 align 2 {
entry:
  %this.addr = alloca ptr, align 8
  store ptr %this, ptr %this.addr, align 8
  %this1 = load ptr, ptr %this.addr, align 8
  %current_test_info_ = getelementptr inbounds %"class.testing::internal::UnitTestImpl", ptr %this1, i32 0, i32 16
  %0 = load ptr, ptr %current_test_info_, align 8
  %tobool = icmp ne ptr %0, null
  br i1 %tobool, label %cond.true, label %cond.false

cond.true:                                        ; preds = %entry
  %current_test_info_2 = getelementptr inbounds %"class.testing::internal::UnitTestImpl", ptr %this1, i32 0, i32 16
  %1 = load ptr, ptr %current_test_info_2, align 8
  %result_ = getelementptr inbounds %"class.testing::TestInfo", ptr %1, i32 0, i32 10
  br label %cond.end

cond.false:                                       ; preds = %entry
  %ad_hoc_test_result_ = getelementptr inbounds %"class.testing::internal::UnitTestImpl", ptr %this1, i32 0, i32 17
  br label %cond.end

cond.end:                                         ; preds = %cond.false, %cond.true
  %cond = phi ptr [ %result_, %cond.true ], [ %ad_hoc_test_result_, %cond.false ]
  ret ptr %cond
}

; Function Attrs: mustprogress uwtable
define hidden void @_ZN7testing8internal35DefaultGlobalTestPartResultReporter20ReportTestPartResultERKNS_14TestPartResultE(ptr noundef nonnull align 8 dereferenceable(16) %this, ptr noundef nonnull align 8 dereferenceable(112) %result) unnamed_addr #4 align 2 {
entry:
  %this.addr = alloca ptr, align 8
  %result.addr = alloca ptr, align 8
  store ptr %this, ptr %this.addr, align 8
  store ptr %result, ptr %result.addr, align 8
  %this1 = load ptr, ptr %this.addr, align 8
  %unit_test_ = getelementptr inbounds %"class.testing::internal::DefaultGlobalTestPartResultReporter", ptr %this1, i32 0, i32 1
  %0 = load ptr, ptr %unit_test_, align 8
  %call = call noundef ptr @_ZN7testing8internal12UnitTestImpl19current_test_resultEv(ptr noundef nonnull align 8 dereferenceable(497) %0)
  %1 = load ptr, ptr %result.addr, align 8
  call void @_ZN7testing10TestResult17AddTestPartResultERKNS_14TestPartResultE(ptr noundef nonnull align 8 dereferenceable(120) %call, ptr noundef nonnull align 8 dereferenceable(112) %1)
  %unit_test_2 = getelementptr inbounds %"class.testing::internal::DefaultGlobalTestPartResultReporter", ptr %this1, i32 0, i32 1
  %2 = load ptr, ptr %unit_test_2, align 8
  %call3 = call noundef ptr @_ZN7testing8internal12UnitTestImpl9listenersEv(ptr noundef nonnull align 8 dereferenceable(497) %2)
  %call4 = call noundef ptr @_ZN7testing18TestEventListeners8repeaterEv(ptr noundef nonnull align 8 dereferenceable(24) %call3)
  %3 = load ptr, ptr %result.addr, align 8
  %vtable = load ptr, ptr %call4, align 8
  %vfn = getelementptr inbounds ptr, ptr %vtable, i64 8
  %4 = load ptr, ptr %vfn, align 8
  call void %4(ptr noundef nonnull align 8 dereferenceable(8) %call4, ptr noundef nonnull align 8 dereferenceable(112) %3)
  ret void
}