; Function Attrs: mustprogress uwtable
define hidden void @_ZN7testing8internal35DefaultGlobalTestPartResultReporter20ReportTestPartResultERKNS_14TestPartResultE(ptr nocapture noundef nonnull readonly align 8 dereferenceable(16) %this, ptr noundef nonnull align 8 dereferenceable(112) %result) unnamed_addr #3 align 2 {
entry:
  %unit_test_ = getelementptr inbounds i8, ptr %this, i64 8
  %0 = load ptr, ptr %unit_test_, align 8
  %current_test_info_.i = getelementptr inbounds i8, ptr %0, i64 272
  %1 = load ptr, ptr %current_test_info_.i, align 8
  %tobool.not.i = icmp eq ptr %1, null
  %result_.i = getelementptr inbounds i8, ptr %1, i64 144
  %ad_hoc_test_result_.i = getelementptr inbounds i8, ptr %0, i64 280
  %cond.i = select i1 %tobool.not.i, ptr %ad_hoc_test_result_.i, ptr %result_.i
  %test_part_results_.i = getelementptr inbounds i8, ptr %cond.i, i64 56
  tail call void @_ZNSt6vectorIN7testing14TestPartResultESaIS1_EE9push_backERKS1_(ptr noundef nonnull align 8 dereferenceable(24) %test_part_results_.i, ptr noundef nonnull align 8 dereferenceable(112) %result)
  %2 = load ptr, ptr %unit_test_, align 8
  %listeners_.i = getelementptr inbounds i8, ptr %2, i64 400
  %3 = load ptr, ptr %listeners_.i, align 8
  %vtable = load ptr, ptr %3, align 8
  %vfn = getelementptr inbounds i8, ptr %vtable, i64 64
  %4 = load ptr, ptr %vfn, align 8
  tail call void %4(ptr noundef nonnull align 8 dereferenceable(8) %3, ptr noundef nonnull align 8 dereferenceable(112) %result)
  ret void
}